target datalayout = "e-m:e-p270:32:32-p271:32:32-p272:64:64-i64:64-i128:128-f80:128-n8:16:32:64-S128"
target triple = "x86_64-unknown-linux-gnu"

%"class.hermes::hbc::RuntimeFunctionHeader" = type { ptr }
%"class.hermes::vm::CodeBlock" = type <{ ptr, %"class.hermes::hbc::RuntimeFunctionHeader", ptr, i32, i32, i32, [4 x i8] }>
%"class.hermes::vm::RuntimeModule" = type { %"class.llvh::ilist_node", ptr, %"class.std::vector", %"class.hermes::vm::WeakRoot", %"class.std::vector.19", %"class.std::shared_ptr", %"union.hermes::vm::RuntimeModuleFlags", %"class.std::__cxx11::basic_string", i32, [4 x i8], %"class.llvh::DenseMap", %"class.llvh::DenseMap.25" }
%"class.llvh::ilist_node" = type { %"class.llvh::ilist_node_impl" }
%"class.llvh::ilist_node_impl" = type { %"class.llvh::ilist_node_base" }
%"class.llvh::ilist_node_base" = type { ptr, ptr }
%"class.std::vector" = type { %"struct.std::_Vector_base" }
%"struct.std::_Vector_base" = type { %"struct.std::_Vector_base<hermes::vm::RootSymbolID, std::allocator<hermes::vm::RootSymbolID>>::_Vector_impl" }
%"struct.std::_Vector_base<hermes::vm::RootSymbolID, std::allocator<hermes::vm::RootSymbolID>>::_Vector_impl" = type { %"struct.std::_Vector_base<hermes::vm::RootSymbolID, std::allocator<hermes::vm::RootSymbolID>>::_Vector_impl_data" }
%"struct.std::_Vector_base<hermes::vm::RootSymbolID, std::allocator<hermes::vm::RootSymbolID>>::_Vector_impl_data" = type { ptr, ptr, ptr }
%"class.hermes::vm::WeakRoot" = type { %"class.hermes::vm::WeakRootBase" }
%"class.hermes::vm::WeakRootBase" = type { %"class.hermes::vm::CompressedPointer" }
%"class.hermes::vm::CompressedPointer" = type { %"class.hermes::vm::BasedPointer" }
%"class.hermes::vm::BasedPointer" = type { i32 }
%"class.std::vector.19" = type { %"struct.std::_Vector_base.20" }
%"struct.std::_Vector_base.20" = type { %"struct.std::_Vector_base<hermes::vm::CodeBlock *, std::allocator<hermes::vm::CodeBlock *>>::_Vector_impl" }
%"struct.std::_Vector_base<hermes::vm::CodeBlock *, std::allocator<hermes::vm::CodeBlock *>>::_Vector_impl" = type { %"struct.std::_Vector_base<hermes::vm::CodeBlock *, std::allocator<hermes::vm::CodeBlock *>>::_Vector_impl_data" }
%"struct.std::_Vector_base<hermes::vm::CodeBlock *, std::allocator<hermes::vm::CodeBlock *>>::_Vector_impl_data" = type { ptr, ptr, ptr }
%"class.std::shared_ptr" = type { %"class.std::__shared_ptr" }
%"class.std::__shared_ptr" = type { ptr, %"class.std::__shared_count" }
%"class.std::__shared_count" = type { ptr }
%"union.hermes::vm::RuntimeModuleFlags" = type { %struct.anon.24 }
%struct.anon.24 = type { i8 }
%"class.std::__cxx11::basic_string" = type { %"struct.std::__cxx11::basic_string<char>::_Alloc_hider", i64, %union.anon }
%"struct.std::__cxx11::basic_string<char>::_Alloc_hider" = type { ptr }
%union.anon = type { i64, [8 x i8] }
%"class.llvh::DenseMap" = type <{ ptr, i32, i32, i32, [4 x i8] }>
%"class.llvh::DenseMap.25" = type <{ ptr, i32, i32, i32, [4 x i8] }>
%"class.hermes::OptValue" = type <{ i32, i8, [3 x i8] }>
%"struct.hermes::hbc::DebugOffsets" = type { i32, i32, i32 }
%"struct.std::pair.48" = type { %"class.llvh::ArrayRef.50", ptr }
%"class.llvh::ArrayRef.50" = type { ptr, i64 }

; Function Attrs: mustprogress nounwind uwtable
define linkonce_odr hidden noundef ptr @_ZNKSt12__shared_ptrIN6hermes3hbc20BCProviderFromBufferELN9__gnu_cxx12_Lock_policyE2EE3getEv(ptr noundef nonnull align 8 dereferenceable(16) %this) #0 comdat align 2 {
entry:
  %this.addr = alloca ptr, align 8
  store ptr %this, ptr %this.addr, align 8
  %this1 = load ptr, ptr %this.addr, align 8
  %_M_ptr = getelementptr inbounds %"class.std::__shared_ptr", ptr %this1, i32 0, i32 0
  %0 = load ptr, ptr %_M_ptr, align 8
  ret ptr %0
}

; Function Attrs: mustprogress nounwind uwtable
define linkonce_odr hidden void @_ZN6hermes8OptValueIjEC2ERKj(ptr noundef nonnull align 4 dereferenceable(5) %this, ptr noundef nonnull align 4 dereferenceable(4) %v) unnamed_addr #0 comdat align 2 {
entry:
  %this.addr = alloca ptr, align 8
  %v.addr = alloca ptr, align 8
  store ptr %this, ptr %this.addr, align 8
  store ptr %v, ptr %v.addr, align 8
  %this1 = load ptr, ptr %this.addr, align 8
  %value_ = getelementptr inbounds %"class.hermes::OptValue", ptr %this1, i32 0, i32 0
  %0 = load ptr, ptr %v.addr, align 8
  %1 = load i32, ptr %0, align 4
  store i32 %1, ptr %value_, align 4
  %hasValue_ = getelementptr inbounds %"class.hermes::OptValue", ptr %this1, i32 0, i32 1
  store i8 1, ptr %hasValue_, align 4
  ret void
}

; Function Attrs: mustprogress nounwind uwtable
define linkonce_odr hidden void @_ZN6hermes8OptValueIjEC2EN4llvh8NoneTypeE(ptr noundef nonnull align 4 dereferenceable(5) %this, i32 noundef %0) unnamed_addr #0 comdat align 2 {
entry:
  %this.addr = alloca ptr, align 8
  %.addr = alloca i32, align 4
  store ptr %this, ptr %this.addr, align 8
  store i32 %0, ptr %.addr, align 4
  %this1 = load ptr, ptr %this.addr, align 8
  %value_ = getelementptr inbounds %"class.hermes::OptValue", ptr %this1, i32 0, i32 0
  store i32 0, ptr %value_, align 4
  %hasValue_ = getelementptr inbounds %"class.hermes::OptValue", ptr %this1, i32 0, i32 1
  store i8 0, ptr %hasValue_, align 4
  ret void
}

; Function Attrs: mustprogress nounwind uwtable
define linkonce_odr hidden noundef ptr @_ZNK6hermes3hbc20BCProviderFromBuffer15getDebugOffsetsEj(ptr noundef nonnull align 8 dereferenceable(376) %this, i32 noundef %functionID) unnamed_addr #0 comdat align 2 {
entry:
  %this.addr = alloca ptr, align 8
  %functionID.addr = alloca i32, align 4
  %ref.tmp = alloca %"struct.std::pair.48", align 8
  store ptr %this, ptr %this.addr, align 8
  store i32 %functionID, ptr %functionID.addr, align 4
  %this1 = load ptr, ptr %this.addr, align 8
  %0 = load i32, ptr %functionID.addr, align 4
  call void @_ZNK6hermes3hbc20BCProviderFromBuffer32getExceptionTableAndDebugOffsetsEj(ptr sret(%"struct.std::pair.48") align 8 %ref.tmp, ptr noundef nonnull align 8 dereferenceable(376) %this1, i32 noundef %0)
  %second = getelementptr inbounds %"struct.std::pair.48", ptr %ref.tmp, i32 0, i32 1
  %1 = load ptr, ptr %second, align 8
  ret ptr %1
}

; Function Attrs: mustprogress nounwind uwtable
define linkonce_odr hidden noundef ptr @_ZN6hermes2vm13RuntimeModule11getBytecodeEv(ptr noundef nonnull align 8 dereferenceable(192) %this) #0 comdat align 2 {
entry:
  %this.addr = alloca ptr, align 8
  store ptr %this, ptr %this.addr, align 8
  %this1 = load ptr, ptr %this.addr, align 8
  %bcProvider_ = getelementptr inbounds %"class.hermes::vm::RuntimeModule", ptr %this1, i32 0, i32 5
  %call = call noundef ptr @_ZNKSt12__shared_ptrIN6hermes3hbc20BCProviderFromBufferELN9__gnu_cxx12_Lock_policyE2EE3getEv(ptr noundef nonnull align 8 dereferenceable(16) %bcProvider_) #5
  ret ptr %call
}

; Function Attrs: mustprogress nounwind uwtable
define hidden i64 @_ZNK6hermes2vm9CodeBlock29getDebugSourceLocationsOffsetEv(ptr noundef nonnull align 8 dereferenceable(40) %this) #0 align 2 {
entry:
  %retval = alloca %"class.hermes::OptValue", align 4
  %this.addr = alloca ptr, align 8
  %debugOffsets = alloca ptr, align 8
  %ret = alloca i32, align 4
  store ptr %this, ptr %this.addr, align 8
  %this1 = load ptr, ptr %this.addr, align 8
  %runtimeModule_ = getelementptr inbounds %"class.hermes::vm::CodeBlock", ptr %this1, i32 0, i32 0
  %0 = load ptr, ptr %runtimeModule_, align 8
  %call = call noundef ptr @_ZN6hermes2vm13RuntimeModule11getBytecodeEv(ptr noundef nonnull align 8 dereferenceable(192) %0)
  %functionID_ = getelementptr inbounds %"class.hermes::vm::CodeBlock", ptr %this1, i32 0, i32 3
  %1 = load i32, ptr %functionID_, align 8
  %call2 = call noundef ptr @_ZNK6hermes3hbc20BCProviderFromBuffer15getDebugOffsetsEj(ptr noundef nonnull align 8 dereferenceable(376) %call, i32 noundef %1)
  store ptr %call2, ptr %debugOffsets, align 8
  %2 = load ptr, ptr %debugOffsets, align 8
  %tobool = icmp ne ptr %2, null
  br i1 %tobool, label %if.end, label %if.then

if.then:                                          ; preds = %entry
  call void @_ZN6hermes8OptValueIjEC2EN4llvh8NoneTypeE(ptr noundef nonnull align 4 dereferenceable(5) %retval, i32 noundef 1)
  br label %return

if.end:                                           ; preds = %entry
  %3 = load ptr, ptr %debugOffsets, align 8
  %sourceLocations = getelementptr inbounds %"struct.hermes::hbc::DebugOffsets", ptr %3, i32 0, i32 0
  %4 = load i32, ptr %sourceLocations, align 4
  store i32 %4, ptr %ret, align 4
  %5 = load i32, ptr %ret, align 4
  %cmp = icmp eq i32 %5, -1
  br i1 %cmp, label %if.then3, label %if.end4

if.then3:                                         ; preds = %if.end
  call void @_ZN6hermes8OptValueIjEC2EN4llvh8NoneTypeE(ptr noundef nonnull align 4 dereferenceable(5) %retval, i32 noundef 1)
  br label %return

if.end4:                                          ; preds = %if.end
  call void @_ZN6hermes8OptValueIjEC2ERKj(ptr noundef nonnull align 4 dereferenceable(5) %retval, ptr noundef nonnull align 4 dereferenceable(4) %ret)
  br label %return

return:                                           ; preds = %if.end4, %if.then3, %if.then
  %6 = load i64, ptr %retval, align 4
  ret i64 %6
}